target datalayout = "e-m:e-p270:32:32-p271:32:32-p272:64:64-i64:64-i128:128-f80:128-n8:16:32:64-S128"
target triple = "x86_64-pc-linux-gnu"

@solaredge_handle = internal global ptr null, align 8
@proto_register_solaredge.ett = internal global [4 x ptr] [ptr @ett_solaredge_packet, ptr @ett_solaredge_packet_decrypted, ptr @ett_solaredge_packet_post, ptr @ett_solaredge_packet_post_device], align 16
@.str.89 = private unnamed_addr constant [30 x i8] c"SolarEdge monitoring protocol\00", align 1
@.str.90 = private unnamed_addr constant [10 x i8] c"SolarEdge\00", align 1
@.str.91 = private unnamed_addr constant [10 x i8] c"solaredge\00", align 1
@proto_solaredge = internal global i32 0, align 4
@.str.92 = private unnamed_addr constant [8 x i8] c"unknown\00", align 1
@.str.93 = private unnamed_addr constant [20 x i8] c"Show unknown fields\00", align 1
@.str.94 = private unnamed_addr constant [59 x i8] c"Show unidentified fields (\22padding\22) in packet dissections\00", align 1
@global_show_unknown_fields = internal global i8 1, align 1
@.str.95 = private unnamed_addr constant [22 x i8] c"system_encryption_key\00", align 1
@.str.96 = private unnamed_addr constant [22 x i8] c"System encryption key\00", align 1
@.str.97 = private unnamed_addr constant [31 x i8] c"Inverter system encryption key\00", align 1
@global_system_encryption_key = internal global ptr null, align 8

; Function Attrs: null_pointer_is_valid sspstrong uwtable
define hidden void @proto_register_solaredge() #0 {
  %1 = alloca ptr, align 8
  %2 = alloca ptr, align 8
  call void @llvm.lifetime.start.p0(i64 8, ptr %1) #8
  %3 = call i32 @proto_register_protocol(ptr noundef @.str.89, ptr noundef @.str.90, ptr noundef @.str.91)
  store i32 %3, ptr @proto_solaredge, align 4
  %4 = load i32, ptr @proto_solaredge, align 4
  %5 = call ptr @register_dissector(ptr noundef @.str.91, ptr noundef @dissect_solaredge, i32 noundef %4)
  store ptr %5, ptr @solaredge_handle, align 8
  call void @llvm.lifetime.start.p0(i64 8, ptr %2) #8
  %6 = load i32, ptr @proto_solaredge, align 4
  %7 = call ptr @prefs_register_protocol(i32 noundef %6, ptr noundef null)
  store ptr %7, ptr %2, align 8
  %8 = load ptr, ptr %2, align 8
  call void @prefs_register_bool_preference(ptr noundef %8, ptr noundef @.str.92, ptr noundef @.str.93, ptr noundef @.str.94, ptr noundef @global_show_unknown_fields)
  %9 = load ptr, ptr %2, align 8
  call void @prefs_register_string_preference(ptr noundef %9, ptr noundef @.str.95, ptr noundef @.str.96, ptr noundef @.str.97, ptr noundef @global_system_encryption_key)
  %10 = load i32, ptr @proto_solaredge, align 4
  call void @proto_register_field_array(i32 noundef %10, ptr noundef @proto_register_solaredge.hf, i32 noundef 45)
  call void @proto_register_subtree_array(ptr noundef @proto_register_solaredge.ett, i32 noundef 4)
  %11 = load i32, ptr @proto_solaredge, align 4
  %12 = call ptr @expert_register_protocol(i32 noundef %11)
  store ptr %12, ptr %1, align 8
  %13 = load ptr, ptr %1, align 8
  call void @expert_register_field_array(ptr noundef %13, ptr noundef @proto_register_solaredge.ei, i32 noundef 2)
  call void @llvm.lifetime.end.p0(i64 8, ptr %2) #8
  call void @llvm.lifetime.end.p0(i64 8, ptr %1) #8
  ret void
}