; Function Attrs: null_pointer_is_valid sspstrong uwtable
define hidden void @proto_register_solaredge() local_unnamed_addr #0 {
  %1 = tail call i32 @proto_register_protocol(ptr noundef nonnull @.str.89, ptr noundef nonnull @.str.90, ptr noundef nonnull @.str.91)
  store i32 %1, ptr @proto_solaredge, align 4
  %2 = tail call ptr @register_dissector(ptr noundef nonnull @.str.91, ptr noundef nonnull @dissect_solaredge, i32 noundef %1)
  store ptr %2, ptr @solaredge_handle, align 8
  %3 = load i32, ptr @proto_solaredge, align 4
  %4 = tail call ptr @prefs_register_protocol(i32 noundef %3, ptr noundef null)
  tail call void @prefs_register_bool_preference(ptr noundef %4, ptr noundef nonnull @.str.92, ptr noundef nonnull @.str.93, ptr noundef nonnull @.str.94, ptr noundef nonnull @global_show_unknown_fields)
  tail call void @prefs_register_string_preference(ptr noundef %4, ptr noundef nonnull @.str.95, ptr noundef nonnull @.str.96, ptr noundef nonnull @.str.97, ptr noundef nonnull @global_system_encryption_key)
  %5 = load i32, ptr @proto_solaredge, align 4
  tail call void @proto_register_field_array(i32 noundef %5, ptr noundef nonnull @proto_register_solaredge.hf, i32 noundef 45)
  tail call void @proto_register_subtree_array(ptr noundef nonnull @proto_register_solaredge.ett, i32 noundef 4)
  %6 = load i32, ptr @proto_solaredge, align 4
  %7 = tail call ptr @expert_register_protocol(i32 noundef %6)
  tail call void @expert_register_field_array(ptr noundef %7, ptr noundef nonnull @proto_register_solaredge.ei, i32 noundef 2)
  ret void
}